#include <math.h>
#include <stdio.h>
#include <stdlib.h>
#include <string.h>

int main()
{
   int a,b,c,d,e;
   scanf("%d",&e);
   if(e<10)
   {a=e;
      printf("%d",a);}
    else
   if(e<100)
     {a=e%10; b=(e-a)/10;
      printf("%d%d",a,b);}
    else
   if(e<1000)
         {a=e%10; b=((e-a)/10)%10; c=(int)(e/100);
         printf("%d%d%d",a,b,c);}
    else
         {a=e%10; b=((e-a)/10)%10; c=((e-b*10-a)/100)%10;  d=(int)(e/1000);
            printf("%d%d%d%d",a,b,c,d);}
return 0;






}
